; Function Attrs: nounwind uwtable
define internal noundef zeroext i1 @SDL_SetError_DEFAULT(ptr noundef %0, ...) #0 {
  %2 = alloca [128 x i8], align 16
  %3 = alloca ptr, align 8
  %4 = alloca [1 x %struct.__va_list_tag], align 16
  call void @llvm.lifetime.start.p0(i64 128, ptr nonnull %2) #12
  call void @llvm.lifetime.start.p0(i64 8, ptr nonnull %3) #12
  store ptr %2, ptr %3, align 8
  call void @llvm.lifetime.start.p0(i64 24, ptr nonnull %4) #12
  call fastcc void @SDL_InitDynamicAPI()
  call void @llvm.va_start.p0(ptr nonnull %4)
  %5 = load ptr, ptr getelementptr inbounds nuw (i8, ptr @jump_table, i64 9272), align 8
  %6 = call i32 %5(ptr noundef nonnull %2, i64 noundef 128, ptr noundef %0, ptr noundef nonnull %4) #12
  call void @llvm.va_end.p0(ptr nonnull %4)
  %or.cond = icmp sgt i32 %6, 127
  br i1 %or.cond, label %7, label %10

7:                                                ; preds = %1
  store ptr null, ptr %3, align 8
  call void @llvm.va_start.p0(ptr nonnull %4)
  %8 = load ptr, ptr getelementptr inbounds nuw (i8, ptr @jump_table, i64 9264), align 8
  %9 = call i32 %8(ptr noundef nonnull %3, ptr noundef %0, ptr noundef nonnull %4) #12
  call void @llvm.va_end.p0(ptr nonnull %4)
  %.pre7.pre = load ptr, ptr %3, align 8
  br label %10

10:                                               ; preds = %7, %1
  %.pre7 = phi ptr [ %.pre7.pre, %7 ], [ %2, %1 ]
  %.0 = phi i32 [ %9, %7 ], [ %6, %1 ]
  %11 = icmp sgt i32 %.0, -1
  br i1 %11, label %12, label %15

12:                                               ; preds = %10
  %13 = load ptr, ptr getelementptr inbounds nuw (i8, ptr @jump_table, i64 80), align 8
  %14 = call zeroext i1 (ptr, ...) %13(ptr noundef nonnull @.str, ptr noundef %.pre7) #12
  %.pre = load ptr, ptr %3, align 8
  br label %15

15:                                               ; preds = %12, %10
  %16 = phi ptr [ %.pre, %12 ], [ %.pre7, %10 ]
  %.not = icmp eq ptr %16, %2
  br i1 %.not, label %19, label %17

17:                                               ; preds = %15
  %18 = load ptr, ptr getelementptr inbounds nuw (i8, ptr @jump_table, i64 8288), align 8
  call void %18(ptr noundef %16) #12
  br label %19

19:                                               ; preds = %17, %15
  call void @llvm.lifetime.end.p0(i64 24, ptr nonnull %4) #12
  call void @llvm.lifetime.end.p0(i64 8, ptr nonnull %3) #12
  call void @llvm.lifetime.end.p0(i64 128, ptr nonnull %2) #12
  ret i1 false
}